target datalayout = "e-m:e-p270:32:32-p271:32:32-p272:64:64-i64:64-i128:128-f80:128-n8:16:32:64-S128"
target triple = "x86_64-pc-linux-gnu"

%struct.repo_settings = type { i32, i32, i32, i32, i32, i32, i32, i32, i32, i32, i32, i32, ptr, i32, i32, i32, i32, i32, i32, i32, i64, i64, i64 }
%struct.repository = type { ptr, ptr, ptr, ptr, ptr, %struct.strmap, %struct.strmap, %struct.repo_path_cache, ptr, ptr, ptr, ptr, %struct.repo_settings, ptr, ptr, ptr, ptr, ptr, ptr, i32, i32, i32, ptr, ptr, i32, i32, i8 }
%struct.strmap = type { %struct.hashmap, ptr, i8 }
%struct.hashmap = type { ptr, ptr, ptr, i32, i32, i32, i32, i8 }
%struct.repo_path_cache = type { ptr, ptr, ptr, ptr, ptr, ptr, ptr }

@.str.31 = private unnamed_addr constant [23 x i8] c"core.warnambiguousrefs\00", align 1

; Function Attrs: nounwind uwtable
define internal void @repo_cfg_bool(ptr noundef %0, ptr noundef %1, ptr noundef %2, i32 noundef %3) #0 {
  %5 = alloca ptr, align 8
  %6 = alloca ptr, align 8
  %7 = alloca ptr, align 8
  %8 = alloca i32, align 4
  store ptr %0, ptr %5, align 8, !tbaa !4
  store ptr %1, ptr %6, align 8, !tbaa !39
  store ptr %2, ptr %7, align 8, !tbaa !45
  store i32 %3, ptr %8, align 4, !tbaa !31
  %9 = load ptr, ptr %5, align 8, !tbaa !4
  %10 = load ptr, ptr %6, align 8, !tbaa !39
  %11 = load ptr, ptr %7, align 8, !tbaa !45
  %12 = call i32 @repo_config_get_bool(ptr noundef %9, ptr noundef %10, ptr noundef %11)
  %13 = icmp ne i32 %12, 0
  br i1 %13, label %14, label %17

14:                                               ; preds = %4
  %15 = load i32, ptr %8, align 4, !tbaa !31
  %16 = load ptr, ptr %7, align 8, !tbaa !45
  store i32 %15, ptr %16, align 4, !tbaa !31
  br label %17

17:                                               ; preds = %14, %4
  ret void
}

; Function Attrs: nounwind uwtable
define dso_local i32 @repo_settings_get_warn_ambiguous_refs(ptr noundef %0) #0 {
  %2 = alloca ptr, align 8
  store ptr %0, ptr %2, align 8, !tbaa !4
  %3 = load ptr, ptr %2, align 8, !tbaa !4
  call void @prepare_repo_settings(ptr noundef %3)
  %4 = load ptr, ptr %2, align 8, !tbaa !4
  %5 = getelementptr inbounds nuw %struct.repository, ptr %4, i32 0, i32 12
  %6 = getelementptr inbounds nuw %struct.repo_settings, ptr %5, i32 0, i32 19
  %7 = load i32, ptr %6, align 8, !tbaa !47
  %8 = icmp slt i32 %7, 0
  br i1 %8, label %9, label %14

9:                                                ; preds = %1
  %10 = load ptr, ptr %2, align 8, !tbaa !4
  %11 = load ptr, ptr %2, align 8, !tbaa !4
  %12 = getelementptr inbounds nuw %struct.repository, ptr %11, i32 0, i32 12
  %13 = getelementptr inbounds nuw %struct.repo_settings, ptr %12, i32 0, i32 19
  call void @repo_cfg_bool(ptr noundef %10, ptr noundef @.str.31, ptr noundef %13, i32 noundef 1)
  br label %14

14:                                               ; preds = %9, %1
  %15 = load ptr, ptr %2, align 8, !tbaa !4
  %16 = getelementptr inbounds nuw %struct.repository, ptr %15, i32 0, i32 12
  %17 = getelementptr inbounds nuw %struct.repo_settings, ptr %16, i32 0, i32 19
  %18 = load i32, ptr %17, align 8, !tbaa !47
  ret i32 %18
}