; Function Attrs: nounwind uwtable
define dso_local i32 @repo_settings_get_warn_ambiguous_refs(ptr noundef %0) local_unnamed_addr #0 {
  tail call void @prepare_repo_settings(ptr noundef %0)
  %2 = getelementptr inbounds nuw i8, ptr %0, i64 336
  %3 = load i32, ptr %2, align 8, !tbaa !43
  %4 = icmp slt i32 %3, 0
  br i1 %4, label %5, label %repo_cfg_bool.exit

5:                                                ; preds = %1
  %6 = tail call i32 @repo_config_get_bool(ptr noundef nonnull %0, ptr noundef nonnull @.str.31, ptr noundef nonnull %2) #7
  %.not.i = icmp eq i32 %6, 0
  br i1 %.not.i, label %.repo_cfg_bool.exit_crit_edge, label %7

.repo_cfg_bool.exit_crit_edge:                    ; preds = %5
  %.pre = load i32, ptr %2, align 8, !tbaa !43
  br label %repo_cfg_bool.exit

7:                                                ; preds = %5
  store i32 1, ptr %2, align 4, !tbaa !29
  br label %repo_cfg_bool.exit

repo_cfg_bool.exit:                               ; preds = %.repo_cfg_bool.exit_crit_edge, %7, %1
  %8 = phi i32 [ %.pre, %.repo_cfg_bool.exit_crit_edge ], [ 1, %7 ], [ %3, %1 ]
  ret i32 %8
}